target datalayout = "e-m:e-p270:32:32-p271:32:32-p272:64:64-i64:64-i128:128-f80:128-n8:16:32:64-S128"
target triple = "x86_64-pc-linux-gnu"

%struct.CodecMime = type { [32 x i8], i32 }
%struct.ExtraMetaList = type { ptr, ptr }
%struct.ID3v2ExtraMeta = type { ptr, ptr, %union.anon }
%union.anon = type { %struct.ID3v2ExtraMetaGEOB }
%struct.ID3v2ExtraMetaGEOB = type { i32, ptr, ptr, ptr, ptr }
%struct.ID3v2ExtraMetaAPIC = type { ptr, ptr, ptr, i32 }
%struct.AVBufferRef = type { ptr, ptr, i64 }

@.str.66 = private unnamed_addr constant [5 x i8] c"APIC\00", align 1
@.str.128 = private unnamed_addr constant [50 x i8] c"Unknown attached picture mimetype: %s, skipping.\0A\00", align 1
@.str.129 = private unnamed_addr constant [35 x i8] c"Unknown attached picture type %d.\0A\00", align 1
@.str.130 = private unnamed_addr constant [46 x i8] c"Error decoding attached picture description.\0A\00", align 1

; Function Attrs: nounwind uwtable
define internal void @free_apic(ptr noundef %0) #0 {
  %2 = alloca ptr, align 8
  %3 = alloca ptr, align 8
  store ptr %0, ptr %2, align 8, !tbaa !108
  call void @llvm.lifetime.start.p0(i64 8, ptr %3) #10
  %4 = load ptr, ptr %2, align 8, !tbaa !108
  store ptr %4, ptr %3, align 8, !tbaa !52
  %5 = load ptr, ptr %3, align 8, !tbaa !52
  %6 = getelementptr inbounds nuw %struct.ID3v2ExtraMetaAPIC, ptr %5, i32 0, i32 0
  call void @av_buffer_unref(ptr noundef %6)
  %7 = load ptr, ptr %3, align 8, !tbaa !52
  %8 = getelementptr inbounds nuw %struct.ID3v2ExtraMetaAPIC, ptr %7, i32 0, i32 2
  call void @av_freep(ptr noundef %8)
  call void @llvm.lifetime.end.p0(i64 8, ptr %3) #10
  ret void
}

; Function Attrs: nounwind uwtable
define internal void @list_append(ptr noundef %0, ptr noundef %1) #0 {
  %3 = alloca ptr, align 8
  %4 = alloca ptr, align 8
  store ptr %0, ptr %3, align 8, !tbaa !23
  store ptr %1, ptr %4, align 8, !tbaa !92
  %5 = load ptr, ptr %4, align 8, !tbaa !92
  %6 = getelementptr inbounds nuw %struct.ExtraMetaList, ptr %5, i32 0, i32 1
  %7 = load ptr, ptr %6, align 8, !tbaa !130
  %8 = icmp ne ptr %7, null
  br i1 %8, label %9, label %15

9:                                                ; preds = %2
  %10 = load ptr, ptr %3, align 8, !tbaa !23
  %11 = load ptr, ptr %4, align 8, !tbaa !92
  %12 = getelementptr inbounds nuw %struct.ExtraMetaList, ptr %11, i32 0, i32 1
  %13 = load ptr, ptr %12, align 8, !tbaa !130
  %14 = getelementptr inbounds nuw %struct.ID3v2ExtraMeta, ptr %13, i32 0, i32 1
  store ptr %10, ptr %14, align 8, !tbaa !47
  br label %19

15:                                               ; preds = %2
  %16 = load ptr, ptr %3, align 8, !tbaa !23
  %17 = load ptr, ptr %4, align 8, !tbaa !92
  %18 = getelementptr inbounds nuw %struct.ExtraMetaList, ptr %17, i32 0, i32 0
  store ptr %16, ptr %18, align 8, !tbaa !27
  br label %19

19:                                               ; preds = %15, %9
  %20 = load ptr, ptr %3, align 8, !tbaa !23
  %21 = load ptr, ptr %4, align 8, !tbaa !92
  %22 = getelementptr inbounds nuw %struct.ExtraMetaList, ptr %21, i32 0, i32 1
  store ptr %20, ptr %22, align 8, !tbaa !130
  ret void
}

; Function Attrs: alwaysinline nounwind uwtable
define internal i64 @avio_tell(ptr noundef %0) #7 {
  %2 = alloca ptr, align 8
  store ptr %0, ptr %2, align 8, !tbaa !12
  %3 = load ptr, ptr %2, align 8, !tbaa !12
  %4 = call i64 @avio_seek(ptr noundef %3, i64 noundef 0, i32 noundef 1)
  ret i64 %4
}

; Function Attrs: nounwind uwtable
define internal void @read_apic(ptr noundef %0, ptr noundef %1, i32 noundef %2, ptr noundef %3, ptr noundef %4, i32 noundef %5) #0 {
  %7 = alloca ptr, align 8
  %8 = alloca ptr, align 8
  %9 = alloca i32, align 4
  %10 = alloca ptr, align 8
  %11 = alloca ptr, align 8
  %12 = alloca i32, align 4
  %13 = alloca i32, align 4
  %14 = alloca i32, align 4
  %15 = alloca [64 x i8], align 16
  %16 = alloca ptr, align 8
  %17 = alloca i32, align 4
  %18 = alloca ptr, align 8
  %19 = alloca ptr, align 8
  %20 = alloca i64, align 8
  %21 = alloca i32, align 4
  %22 = alloca i32, align 4
  store ptr %0, ptr %7, align 8, !tbaa !19
  store ptr %1, ptr %8, align 8, !tbaa !12
  store i32 %2, ptr %9, align 4, !tbaa !10
  store ptr %3, ptr %10, align 8, !tbaa !4
  store ptr %4, ptr %11, align 8, !tbaa !92
  store i32 %5, ptr %12, align 4, !tbaa !10
  call void @llvm.lifetime.start.p0(i64 4, ptr %13) #10
  call void @llvm.lifetime.start.p0(i64 4, ptr %14) #10
  call void @llvm.lifetime.start.p0(i64 64, ptr %15) #10
  call void @llvm.memset.p0.i64(ptr align 16 %15, i8 0, i64 64, i1 false)
  call void @llvm.lifetime.start.p0(i64 8, ptr %16) #10
  store ptr @ff_id3v2_mime_tags, ptr %16, align 8, !tbaa !120
  call void @llvm.lifetime.start.p0(i64 4, ptr %17) #10
  store i32 0, ptr %17, align 4, !tbaa !10
  call void @llvm.lifetime.start.p0(i64 8, ptr %18) #10
  store ptr null, ptr %18, align 8, !tbaa !52
  call void @llvm.lifetime.start.p0(i64 8, ptr %19) #10
  store ptr null, ptr %19, align 8, !tbaa !23
  call void @llvm.lifetime.start.p0(i64 8, ptr %20) #10
  %23 = load ptr, ptr %8, align 8, !tbaa !12
  %24 = call i64 @avio_tell(ptr noundef %23)
  %25 = load i32, ptr %9, align 4, !tbaa !10
  %26 = sext i32 %25 to i64
  %27 = add nsw i64 %24, %26
  store i64 %27, ptr %20, align 8, !tbaa !21
  %28 = load i32, ptr %9, align 4, !tbaa !10
  %29 = icmp sle i32 %28, 4
  br i1 %29, label %36, label %30

30:                                               ; preds = %6
  %31 = load i32, ptr %12, align 4, !tbaa !10
  %32 = icmp ne i32 %31, 0
  br i1 %32, label %37, label %33

33:                                               ; preds = %30
  %34 = load i32, ptr %9, align 4, !tbaa !10
  %35 = icmp sle i32 %34, 6
  br i1 %35, label %36, label %37

36:                                               ; preds = %33, %6
  br label %181

37:                                               ; preds = %33, %30
  %38 = call noalias ptr @av_mallocz(i64 noundef 56)
  store ptr %38, ptr %19, align 8, !tbaa !23
  %39 = load ptr, ptr %19, align 8, !tbaa !23
  %40 = icmp ne ptr %39, null
  br i1 %40, label %42, label %41

41:                                               ; preds = %37
  br label %181

42:                                               ; preds = %37
  %43 = load ptr, ptr %19, align 8, !tbaa !23
  %44 = getelementptr inbounds nuw %struct.ID3v2ExtraMeta, ptr %43, i32 0, i32 2
  store ptr %44, ptr %18, align 8, !tbaa !52
  %45 = load ptr, ptr %8, align 8, !tbaa !12
  %46 = call i32 @avio_r8(ptr noundef %45)
  store i32 %46, ptr %13, align 4, !tbaa !10
  %47 = load i32, ptr %9, align 4, !tbaa !10
  %48 = add nsw i32 %47, -1
  store i32 %48, ptr %9, align 4, !tbaa !10
  %49 = load i32, ptr %12, align 4, !tbaa !10
  %50 = icmp ne i32 %49, 0
  br i1 %50, label %51, label %70

51:                                               ; preds = %42
  call void @llvm.lifetime.start.p0(i64 4, ptr %21) #10
  %52 = load ptr, ptr %8, align 8, !tbaa !12
  %53 = load i32, ptr %9, align 4, !tbaa !10
  %54 = getelementptr inbounds [64 x i8], ptr %15, i64 0, i64 0
  %55 = call i32 @avio_get_str(ptr noundef %52, i32 noundef %53, ptr noundef %54, i32 noundef 64)
  store i32 %55, ptr %21, align 4, !tbaa !10
  %56 = load i32, ptr %21, align 4, !tbaa !10
  %57 = icmp slt i32 %56, 0
  br i1 %57, label %62, label %58

58:                                               ; preds = %51
  %59 = load i32, ptr %21, align 4, !tbaa !10
  %60 = load i32, ptr %9, align 4, !tbaa !10
  %61 = icmp sge i32 %59, %60
  br i1 %61, label %62, label %63

62:                                               ; preds = %58, %51
  store i32 2, ptr %22, align 4
  br label %67

63:                                               ; preds = %58
  %64 = load i32, ptr %21, align 4, !tbaa !10
  %65 = load i32, ptr %9, align 4, !tbaa !10
  %66 = sub nsw i32 %65, %64
  store i32 %66, ptr %9, align 4, !tbaa !10
  store i32 0, ptr %22, align 4
  br label %67

67:                                               ; preds = %62, %63
  call void @llvm.lifetime.end.p0(i64 4, ptr %21) #10
  %68 = load i32, ptr %22, align 4
  switch i32 %68, label %190 [
    i32 0, label %69
    i32 2, label %181
  ]

69:                                               ; preds = %67
  br label %80

70:                                               ; preds = %42
  %71 = load ptr, ptr %8, align 8, !tbaa !12
  %72 = getelementptr inbounds [64 x i8], ptr %15, i64 0, i64 0
  %73 = call i32 @avio_read(ptr noundef %71, ptr noundef %72, i32 noundef 3)
  %74 = icmp slt i32 %73, 0
  br i1 %74, label %75, label %76

75:                                               ; preds = %70
  br label %181

76:                                               ; preds = %70
  %77 = getelementptr inbounds [64 x i8], ptr %15, i64 0, i64 3
  store i8 0, ptr %77, align 1, !tbaa !9
  %78 = load i32, ptr %9, align 4, !tbaa !10
  %79 = sub nsw i32 %78, 3
  store i32 %79, ptr %9, align 4, !tbaa !10
  br label %80

80:                                               ; preds = %76, %69
  br label %81

81:                                               ; preds = %97, %80
  %82 = load ptr, ptr %16, align 8, !tbaa !120
  %83 = getelementptr inbounds nuw %struct.CodecMime, ptr %82, i32 0, i32 1
  %84 = load i32, ptr %83, align 4, !tbaa !122
  %85 = icmp ne i32 %84, 0
  br i1 %85, label %86, label %100

86:                                               ; preds = %81
  %87 = load ptr, ptr %16, align 8, !tbaa !120
  %88 = getelementptr inbounds nuw %struct.CodecMime, ptr %87, i32 0, i32 0
  %89 = getelementptr inbounds [32 x i8], ptr %88, i64 0, i64 0
  %90 = getelementptr inbounds [64 x i8], ptr %15, i64 0, i64 0
  %91 = call i32 @av_strncasecmp(ptr noundef %89, ptr noundef %90, i64 noundef 64)
  %92 = icmp ne i32 %91, 0
  br i1 %92, label %97, label %93

93:                                               ; preds = %86
  %94 = load ptr, ptr %16, align 8, !tbaa !120
  %95 = getelementptr inbounds nuw %struct.CodecMime, ptr %94, i32 0, i32 1
  %96 = load i32, ptr %95, align 4, !tbaa !122
  store i32 %96, ptr %17, align 4, !tbaa !10
  br label %100

97:                                               ; preds = %86
  %98 = load ptr, ptr %16, align 8, !tbaa !120
  %99 = getelementptr inbounds nuw %struct.CodecMime, ptr %98, i32 1
  store ptr %99, ptr %16, align 8, !tbaa !120
  br label %81, !llvm.loop !124

100:                                              ; preds = %93, %81
  %101 = load i32, ptr %17, align 4, !tbaa !10
  %102 = icmp eq i32 %101, 0
  br i1 %102, label %103, label %106

103:                                              ; preds = %100
  %104 = load ptr, ptr %7, align 8, !tbaa !19
  %105 = getelementptr inbounds [64 x i8], ptr %15, i64 0, i64 0
  call void (ptr, i32, ptr, ...) @av_log(ptr noundef %104, i32 noundef 24, ptr noundef @.str.128, ptr noundef %105)
  br label %181

106:                                              ; preds = %100
  %107 = load i32, ptr %17, align 4, !tbaa !10
  %108 = load ptr, ptr %18, align 8, !tbaa !52
  %109 = getelementptr inbounds nuw %struct.ID3v2ExtraMetaAPIC, ptr %108, i32 0, i32 3
  store i32 %107, ptr %109, align 8, !tbaa !58
  %110 = load ptr, ptr %8, align 8, !tbaa !12
  %111 = call i32 @avio_r8(ptr noundef %110)
  store i32 %111, ptr %14, align 4, !tbaa !10
  %112 = load i32, ptr %9, align 4, !tbaa !10
  %113 = add nsw i32 %112, -1
  store i32 %113, ptr %9, align 4, !tbaa !10
  %114 = load i32, ptr %14, align 4, !tbaa !10
  %115 = icmp slt i32 %114, 0
  br i1 %115, label %120, label %116

116:                                              ; preds = %106
  %117 = load i32, ptr %14, align 4, !tbaa !10
  %118 = sext i32 %117 to i64
  %119 = icmp uge i64 %118, 21
  br i1 %119, label %120, label %123

120:                                              ; preds = %116, %106
  %121 = load ptr, ptr %7, align 8, !tbaa !19
  %122 = load i32, ptr %14, align 4, !tbaa !10
  call void (ptr, i32, ptr, ...) @av_log(ptr noundef %121, i32 noundef 24, ptr noundef @.str.129, i32 noundef %122)
  store i32 0, ptr %14, align 4, !tbaa !10
  br label %123

123:                                              ; preds = %120, %116
  %124 = load i32, ptr %14, align 4, !tbaa !10
  %125 = sext i32 %124 to i64
  %126 = getelementptr inbounds [21 x ptr], ptr @ff_id3v2_picture_types, i64 0, i64 %125
  %127 = load ptr, ptr %126, align 8, !tbaa !4
  %128 = load ptr, ptr %18, align 8, !tbaa !52
  %129 = getelementptr inbounds nuw %struct.ID3v2ExtraMetaAPIC, ptr %128, i32 0, i32 1
  store ptr %127, ptr %129, align 8, !tbaa !72
  %130 = load ptr, ptr %7, align 8, !tbaa !19
  %131 = load ptr, ptr %8, align 8, !tbaa !12
  %132 = load i32, ptr %13, align 4, !tbaa !10
  %133 = load ptr, ptr %18, align 8, !tbaa !52
  %134 = getelementptr inbounds nuw %struct.ID3v2ExtraMetaAPIC, ptr %133, i32 0, i32 2
  %135 = call i32 @decode_str(ptr noundef %130, ptr noundef %131, i32 noundef %132, ptr noundef %134, ptr noundef %9)
  %136 = icmp slt i32 %135, 0
  br i1 %136, label %137, label %139

137:                                              ; preds = %123
  %138 = load ptr, ptr %7, align 8, !tbaa !19
  call void (ptr, i32, ptr, ...) @av_log(ptr noundef %138, i32 noundef 16, ptr noundef @.str.130)
  br label %181

139:                                              ; preds = %123
  %140 = load i32, ptr %9, align 4, !tbaa !10
  %141 = add nsw i32 %140, 64
  %142 = sext i32 %141 to i64
  %143 = call ptr @av_buffer_alloc(i64 noundef %142)
  %144 = load ptr, ptr %18, align 8, !tbaa !52
  %145 = getelementptr inbounds nuw %struct.ID3v2ExtraMetaAPIC, ptr %144, i32 0, i32 0
  store ptr %143, ptr %145, align 8, !tbaa !125
  %146 = load ptr, ptr %18, align 8, !tbaa !52
  %147 = getelementptr inbounds nuw %struct.ID3v2ExtraMetaAPIC, ptr %146, i32 0, i32 0
  %148 = load ptr, ptr %147, align 8, !tbaa !125
  %149 = icmp ne ptr %148, null
  br i1 %149, label %150, label %164

150:                                              ; preds = %139
  %151 = load i32, ptr %9, align 4, !tbaa !10
  %152 = icmp ne i32 %151, 0
  br i1 %152, label %153, label %164

153:                                              ; preds = %150
  %154 = load ptr, ptr %8, align 8, !tbaa !12
  %155 = load ptr, ptr %18, align 8, !tbaa !52
  %156 = getelementptr inbounds nuw %struct.ID3v2ExtraMetaAPIC, ptr %155, i32 0, i32 0
  %157 = load ptr, ptr %156, align 8, !tbaa !125
  %158 = getelementptr inbounds nuw %struct.AVBufferRef, ptr %157, i32 0, i32 1
  %159 = load ptr, ptr %158, align 8, !tbaa !126
  %160 = load i32, ptr %9, align 4, !tbaa !10
  %161 = call i32 @avio_read(ptr noundef %154, ptr noundef %159, i32 noundef %160)
  %162 = load i32, ptr %9, align 4, !tbaa !10
  %163 = icmp ne i32 %161, %162
  br i1 %163, label %164, label %165

164:                                              ; preds = %153, %150, %139
  br label %181

165:                                              ; preds = %153
  %166 = load ptr, ptr %18, align 8, !tbaa !52
  %167 = getelementptr inbounds nuw %struct.ID3v2ExtraMetaAPIC, ptr %166, i32 0, i32 0
  %168 = load ptr, ptr %167, align 8, !tbaa !125
  %169 = getelementptr inbounds nuw %struct.AVBufferRef, ptr %168, i32 0, i32 1
  %170 = load ptr, ptr %169, align 8, !tbaa !126
  %171 = load i32, ptr %9, align 4, !tbaa !10
  %172 = sext i32 %171 to i64
  %173 = getelementptr inbounds i8, ptr %170, i64 %172
  call void @llvm.memset.p0.i64(ptr align 1 %173, i8 0, i64 64, i1 false)
  %174 = load ptr, ptr %19, align 8, !tbaa !23
  %175 = getelementptr inbounds nuw %struct.ID3v2ExtraMeta, ptr %174, i32 0, i32 0
  store ptr @.str.66, ptr %175, align 8, !tbaa !41
  %176 = load ptr, ptr %18, align 8, !tbaa !52
  %177 = getelementptr inbounds nuw %struct.ID3v2ExtraMetaAPIC, ptr %176, i32 0, i32 2
  %178 = load ptr, ptr %177, align 8, !tbaa !71
  call void @rstrip_spaces(ptr noundef %178)
  %179 = load ptr, ptr %19, align 8, !tbaa !23
  %180 = load ptr, ptr %11, align 8, !tbaa !92
  call void @list_append(ptr noundef %179, ptr noundef %180)
  store i32 1, ptr %22, align 4
  br label %190

181:                                              ; preds = %67, %164, %137, %103, %75, %41, %36
  %182 = load ptr, ptr %18, align 8, !tbaa !52
  %183 = icmp ne ptr %182, null
  br i1 %183, label %184, label %186

184:                                              ; preds = %181
  %185 = load ptr, ptr %18, align 8, !tbaa !52
  call void @free_apic(ptr noundef %185)
  br label %186

186:                                              ; preds = %184, %181
  call void @av_freep(ptr noundef %19)
  %187 = load ptr, ptr %8, align 8, !tbaa !12
  %188 = load i64, ptr %20, align 8, !tbaa !21
  %189 = call i64 @avio_seek(ptr noundef %187, i64 noundef %188, i32 noundef 0)
  store i32 0, ptr %22, align 4
  br label %190

190:                                              ; preds = %186, %165, %67
  call void @llvm.lifetime.end.p0(i64 8, ptr %20) #10
  call void @llvm.lifetime.end.p0(i64 8, ptr %19) #10
  call void @llvm.lifetime.end.p0(i64 8, ptr %18) #10
  call void @llvm.lifetime.end.p0(i64 4, ptr %17) #10
  call void @llvm.lifetime.end.p0(i64 8, ptr %16) #10
  call void @llvm.lifetime.end.p0(i64 64, ptr %15) #10
  call void @llvm.lifetime.end.p0(i64 4, ptr %14) #10
  call void @llvm.lifetime.end.p0(i64 4, ptr %13) #10
  %191 = load i32, ptr %22, align 4
  switch i32 %191, label %193 [
    i32 0, label %192
    i32 1, label %192
  ]

192:                                              ; preds = %190, %190
  ret void

193:                                              ; preds = %190
  unreachable
}