; Function Attrs: nounwind uwtable
define internal void @read_apic(ptr noundef %0, ptr noundef %1, i32 noundef %2, ptr readnone captures(none) %3, ptr noundef captures(none) %4, i32 noundef %5) #2 {
  %7 = alloca i32, align 4
  %8 = alloca [64 x i8], align 16
  %9 = alloca ptr, align 8
  call void @llvm.lifetime.start.p0(i64 64, ptr nonnull %8) #9
  call void @llvm.memset.p0.i64(ptr noundef nonnull align 16 dereferenceable(64) %8, i8 0, i64 64, i1 false)
  call void @llvm.lifetime.start.p0(i64 8, ptr nonnull %9) #9
  store ptr null, ptr %9, align 8, !tbaa !7
  %10 = tail call i64 @avio_seek(ptr noundef %1, i64 noundef 0, i32 noundef 1) #9
  %11 = sext i32 %2 to i64
  %12 = add nsw i64 %10, %11
  %13 = icmp slt i32 %2, 5
  br i1 %13, label %81, label %14

14:                                               ; preds = %6
  %15 = icmp eq i32 %5, 0
  %16 = icmp samesign ult i32 %2, 7
  %or.cond = and i1 %16, %15
  br i1 %or.cond, label %81, label %17

17:                                               ; preds = %14
  %18 = tail call noalias ptr @av_mallocz(i64 noundef 56) #9
  store ptr %18, ptr %9, align 8, !tbaa !7
  %.not = icmp eq ptr %18, null
  br i1 %.not, label %81, label %19

19:                                               ; preds = %17
  %20 = getelementptr inbounds nuw i8, ptr %18, i64 16
  %21 = tail call i32 @avio_r8(ptr noundef %1) #9
  %22 = add nsw i32 %2, -1
  br i1 %15, label %28, label %23

23:                                               ; preds = %19
  %24 = call i32 @avio_get_str(ptr noundef %1, i32 noundef %22, ptr noundef nonnull %8, i32 noundef 64) #9
  %25 = icmp sgt i32 %24, -1
  %.not59 = icmp samesign ult i32 %24, %22
  %or.cond74 = select i1 %25, i1 %.not59, i1 false
  br i1 %or.cond74, label %26, label %.thread

26:                                               ; preds = %23
  %27 = sub nuw nsw i32 %22, %24
  br label %34

28:                                               ; preds = %19
  %29 = call i32 @avio_read(ptr noundef %1, ptr noundef nonnull %8, i32 noundef 3) #9
  %30 = icmp slt i32 %29, 0
  br i1 %30, label %.thread, label %31

31:                                               ; preds = %28
  %32 = getelementptr inbounds nuw i8, ptr %8, i64 3
  store i8 0, ptr %32, align 1, !tbaa !4
  %33 = add nsw i32 %2, -4
  br label %34

34:                                               ; preds = %26, %31
  %35 = phi i32 [ %27, %26 ], [ %33, %31 ]
  %36 = call i32 @av_strncasecmp(ptr noundef nonnull @ff_id3v2_mime_tags, ptr noundef nonnull %8, i64 noundef 64) #9
  %.not6180 = icmp eq i32 %36, 0
  br i1 %.not6180, label %._crit_edge, label %.lr.ph

.lr.ph:                                           ; preds = %34, %39
  %.0477681 = phi ptr [ %40, %39 ], [ @ff_id3v2_mime_tags, %34 ]
  %37 = getelementptr inbounds nuw i8, ptr %.0477681, i64 68
  %38 = load i32, ptr %37, align 4, !tbaa !95
  %.not60 = icmp eq i32 %38, 0
  br i1 %.not60, label %42, label %39, !llvm.loop !97

39:                                               ; preds = %.lr.ph
  %40 = getelementptr inbounds nuw i8, ptr %.0477681, i64 36
  %41 = call i32 @av_strncasecmp(ptr noundef nonnull %40, ptr noundef nonnull %8, i64 noundef 64) #9
  %.not61 = icmp eq i32 %41, 0
  br i1 %.not61, label %._crit_edge, label %.lr.ph, !llvm.loop !97

42:                                               ; preds = %.lr.ph
  call void (ptr, i32, ptr, ...) @av_log(ptr noundef %0, i32 noundef 24, ptr noundef nonnull @.str.128, ptr noundef nonnull %8) #9
  br label %.thread

._crit_edge:                                      ; preds = %39, %34
  %.lcssa = phi i32 [ 97, %34 ], [ %38, %39 ]
  %43 = getelementptr inbounds nuw i8, ptr %18, i64 40
  store i32 %.lcssa, ptr %43, align 8, !tbaa !56
  %44 = call i32 @avio_r8(ptr noundef %1) #9
  %45 = add nsw i32 %35, -1
  store i32 %45, ptr %7, align 4, !tbaa !12
  %46 = icmp ugt i32 %44, 20
  br i1 %46, label %47, label %48

47:                                               ; preds = %._crit_edge
  call void (ptr, i32, ptr, ...) @av_log(ptr noundef %0, i32 noundef 24, ptr noundef nonnull @.str.129, i32 noundef %44) #9
  br label %48

48:                                               ; preds = %._crit_edge, %47
  %.046 = phi i32 [ 0, %47 ], [ %44, %._crit_edge ]
  %49 = zext nneg i32 %.046 to i64
  %50 = getelementptr inbounds nuw [21 x ptr], ptr @ff_id3v2_picture_types, i64 0, i64 %49
  %51 = load ptr, ptr %50, align 8, !tbaa !10
  %52 = getelementptr inbounds nuw i8, ptr %18, i64 24
  store ptr %51, ptr %52, align 8, !tbaa !70
  %53 = getelementptr inbounds nuw i8, ptr %18, i64 32
  %54 = call fastcc i32 @decode_str(ptr noundef %0, ptr noundef %1, i32 noundef %21, ptr noundef %53, ptr noundef %7)
  %55 = icmp slt i32 %54, 0
  br i1 %55, label %56, label %57

56:                                               ; preds = %48
  call void (ptr, i32, ptr, ...) @av_log(ptr noundef %0, i32 noundef 16, ptr noundef nonnull @.str.130) #9
  br label %.thread

57:                                               ; preds = %48
  %58 = load i32, ptr %7, align 4, !tbaa !12
  %59 = add nsw i32 %58, 64
  %60 = sext i32 %59 to i64
  %61 = call ptr @av_buffer_alloc(i64 noundef %60) #9
  store ptr %61, ptr %20, align 8, !tbaa !98
  %62 = icmp ne ptr %61, null
  %63 = icmp ne i32 %58, 0
  %or.cond6 = and i1 %63, %62
  br i1 %or.cond6, label %64, label %.thread

64:                                               ; preds = %57
  %65 = getelementptr inbounds nuw i8, ptr %61, i64 8
  %66 = load ptr, ptr %65, align 8, !tbaa !99
  %67 = call i32 @avio_read(ptr noundef %1, ptr noundef %66, i32 noundef %58) #9
  %.not62 = icmp eq i32 %67, %58
  br i1 %.not62, label %68, label %.thread

68:                                               ; preds = %64
  %69 = load ptr, ptr %20, align 8, !tbaa !98
  %70 = getelementptr inbounds nuw i8, ptr %69, i64 8
  %71 = load ptr, ptr %70, align 8, !tbaa !99
  %72 = sext i32 %58 to i64
  %73 = getelementptr inbounds i8, ptr %71, i64 %72
  call void @llvm.memset.p0.i64(ptr noundef nonnull align 1 dereferenceable(64) %73, i8 0, i64 64, i1 false)
  store ptr @.str.66, ptr %18, align 8, !tbaa !47
  %74 = load ptr, ptr %53, align 8, !tbaa !69
  call fastcc void @rstrip_spaces(ptr noundef %74)
  %75 = getelementptr inbounds nuw i8, ptr %4, i64 8
  %76 = load ptr, ptr %75, align 8, !tbaa !94
  %.not.i = icmp eq ptr %76, null
  br i1 %.not.i, label %79, label %77

77:                                               ; preds = %68
  %78 = getelementptr inbounds nuw i8, ptr %76, i64 8
  store ptr %18, ptr %78, align 8, !tbaa !50
  br label %list_append.exit

79:                                               ; preds = %68
  store ptr %18, ptr %4, align 8, !tbaa !32
  br label %list_append.exit

list_append.exit:                                 ; preds = %77, %79
  store ptr %18, ptr %75, align 8, !tbaa !94
  br label %83

.thread:                                          ; preds = %23, %42, %56, %64, %57, %28
  call void @av_buffer_unref(ptr noundef nonnull %20) #9
  %80 = getelementptr inbounds nuw i8, ptr %18, i64 32
  call void @av_freep(ptr noundef nonnull %80) #9
  br label %81

81:                                               ; preds = %14, %6, %17, %.thread
  call void @av_freep(ptr noundef nonnull %9) #9
  %82 = call i64 @avio_seek(ptr noundef %1, i64 noundef %12, i32 noundef 0) #9
  br label %83

83:                                               ; preds = %81, %list_append.exit
  call void @llvm.lifetime.end.p0(i64 8, ptr nonnull %9) #9
  call void @llvm.lifetime.end.p0(i64 64, ptr nonnull %8) #9
  ret void
}